target datalayout = "e-m:e-p270:32:32-p271:32:32-p272:64:64-i64:64-i128:128-f80:128-n8:16:32:64-S128"
target triple = "x86_64-pc-linux-gnu"

%struct.slurm_conf_t = type { i64, ptr, i16, ptr, ptr, ptr, ptr, ptr, i16, ptr, ptr, ptr, ptr, ptr, ptr, ptr, i16, ptr, ptr, ptr, ptr, i16, ptr, ptr, ptr, i64, ptr, ptr, ptr, ptr, i16, ptr, ptr, i16, i32, ptr, i32, ptr, i32, i32, ptr, ptr, i64, i64, ptr, i16, i16, ptr, i32, i32, ptr, i32, ptr, i32, i16, i16, i16, ptr, i16, i16, ptr, ptr, i32, i16, i16, ptr, i32, i16, ptr, ptr, ptr, ptr, i16, ptr, ptr, ptr, ptr, i32, ptr, ptr, ptr, ptr, i16, i16, ptr, i32, i32, i32, i16, i16, ptr, ptr, i16, ptr, ptr, i32, i32, i32, i32, i32, i64, i32, i32, i16, ptr, ptr, i32, ptr, ptr, ptr, i16, i32, ptr, ptr, i16, ptr, ptr, i32, i16, ptr, ptr, ptr, ptr, i32, i32, i16, i16, i32, ptr, i16, ptr, i32, i32, i32, i32, i32, i32, ptr, i16, ptr, ptr, i32, i16, ptr, i32, i16, i16, ptr, ptr, ptr, i16, ptr, ptr, ptr, ptr, i16, i16, ptr, i16, ptr, i16, ptr, i16, ptr, i16, ptr, ptr, ptr, ptr, i16, ptr, ptr, ptr, i32, ptr, i32, ptr, ptr, i16, ptr, ptr, i32, i16, ptr, ptr, i16, i16, ptr, i16, ptr, ptr, ptr, i32, ptr, i16, i16, ptr, ptr, ptr, ptr, ptr, ptr, ptr, ptr, i16, i32, i16, ptr, ptr, ptr, ptr, i32, ptr, ptr, ptr, i16, ptr, ptr, ptr, i16, ptr, i16, ptr, i16, i16, ptr }
%struct.config_response_msg_t = type { ptr, ptr }
%struct.conf_includes_map_t = type { ptr, ptr }

@.str.2 = private unnamed_addr constant [15 x i8] c"fetch_config.c\00", align 1
@__func__.new_config_response = private unnamed_addr constant [20 x i8] c"new_config_response\00", align 1
@client_config_files = internal global [7 x ptr] [ptr @.str.30, ptr @.str.38, ptr @.str.39, ptr @.str.40, ptr @.str.41, ptr @.str.42, ptr null], align 16
@slurmd_config_files = internal global [13 x ptr] [ptr @.str.30, ptr @.str.43, ptr @.str.44, ptr @.str.38, ptr @.str.45, ptr @.str.46, ptr @.str.47, ptr @.str.48, ptr @.str.41, ptr @.str.39, ptr @.str.42, ptr @.str.40, ptr null], align 16
@conf_includes_list = external global ptr, align 8
@slurm_conf = external global %struct.slurm_conf_t, align 8

; Function Attrs: nounwind uwtable
define dso_local ptr @new_config_response(i1 noundef zeroext %0) #0 {
  %2 = alloca i8, align 1
  %3 = alloca ptr, align 8
  %4 = alloca ptr, align 8
  %5 = alloca ptr, align 8
  %6 = alloca i32, align 4
  %7 = alloca i32, align 4
  %8 = alloca i32, align 4
  %9 = zext i1 %0 to i8
  store i8 %9, ptr %2, align 1
  call void @llvm.lifetime.start.p0(i64 8, ptr %3) #9
  %10 = call ptr @slurm_xcalloc(i64 noundef 1, i64 noundef 16, i1 noundef zeroext true, i1 noundef zeroext false, ptr noundef @.str.2, i32 noundef 565, ptr noundef @__func__.new_config_response)
  store ptr %10, ptr %3, align 8
  call void @llvm.lifetime.start.p0(i64 8, ptr %4) #9
  store ptr null, ptr %4, align 8
  call void @llvm.lifetime.start.p0(i64 8, ptr %5) #9
  store ptr @client_config_files, ptr %5, align 8
  %11 = load i8, ptr %2, align 1, !range !13, !noundef !14
  %12 = trunc i8 %11 to i1
  br i1 %12, label %13, label %14

13:                                               ; preds = %1
  store ptr @slurmd_config_files, ptr %5, align 8
  br label %14

14:                                               ; preds = %13, %1
  %15 = call ptr @list_create(ptr noundef @destroy_config_file)
  %16 = load ptr, ptr %3, align 8
  %17 = getelementptr inbounds nuw %struct.config_response_msg_t, ptr %16, i32 0, i32 0
  store ptr %15, ptr %17, align 8
  call void @llvm.lifetime.start.p0(i64 4, ptr %6) #9
  store i32 0, ptr %6, align 4
  br label %18

18:                                               ; preds = %58, %14
  %19 = load ptr, ptr %5, align 8
  %20 = load i32, ptr %6, align 4
  %21 = sext i32 %20 to i64
  %22 = getelementptr inbounds ptr, ptr %19, i64 %21
  %23 = load ptr, ptr %22, align 8
  %24 = icmp ne ptr %23, null
  br i1 %24, label %26, label %25

25:                                               ; preds = %18
  call void @llvm.lifetime.end.p0(i64 4, ptr %6) #9
  br label %61

26:                                               ; preds = %18
  %27 = load ptr, ptr %3, align 8
  %28 = load ptr, ptr %5, align 8
  %29 = load i32, ptr %6, align 4
  %30 = sext i32 %29 to i64
  %31 = getelementptr inbounds ptr, ptr %28, i64 %30
  %32 = load ptr, ptr %31, align 8
  call void @_load_conf2list(ptr noundef %27, ptr noundef %32, i1 noundef zeroext false)
  %33 = load ptr, ptr @conf_includes_list, align 8
  %34 = icmp ne ptr %33, null
  br i1 %34, label %35, label %57

35:                                               ; preds = %26
  %36 = load ptr, ptr @conf_includes_list, align 8
  %37 = load ptr, ptr %5, align 8
  %38 = load i32, ptr %6, align 4
  %39 = sext i32 %38 to i64
  %40 = getelementptr inbounds ptr, ptr %37, i64 %39
  %41 = load ptr, ptr %40, align 8
  %42 = call ptr @list_find_first_ro(ptr noundef %36, ptr noundef @find_map_conf_file, ptr noundef %41)
  store ptr %42, ptr %4, align 8
  %43 = load ptr, ptr %4, align 8
  %44 = icmp ne ptr %43, null
  br i1 %44, label %45, label %56

45:                                               ; preds = %35
  %46 = load ptr, ptr %4, align 8
  %47 = getelementptr inbounds nuw %struct.conf_includes_map_t, ptr %46, i32 0, i32 1
  %48 = load ptr, ptr %47, align 8
  %49 = icmp ne ptr %48, null
  br i1 %49, label %50, label %56

50:                                               ; preds = %45
  %51 = load ptr, ptr %4, align 8
  %52 = getelementptr inbounds nuw %struct.conf_includes_map_t, ptr %51, i32 0, i32 1
  %53 = load ptr, ptr %52, align 8
  %54 = load ptr, ptr %3, align 8
  %55 = call i32 @list_for_each_ro(ptr noundef %53, ptr noundef @_foreach_include_file, ptr noundef %54)
  br label %56

56:                                               ; preds = %50, %45, %35
  br label %57

57:                                               ; preds = %56, %26
  br label %58

58:                                               ; preds = %57
  %59 = load i32, ptr %6, align 4
  %60 = add nsw i32 %59, 1
  store i32 %60, ptr %6, align 4
  br label %18, !llvm.loop !20

61:                                               ; preds = %25
  %62 = load i8, ptr %2, align 1, !range !13, !noundef !14
  %63 = trunc i8 %62 to i1
  br i1 %63, label %64, label %119

64:                                               ; preds = %61
  call void @llvm.lifetime.start.p0(i64 4, ptr %7) #9
  store i32 0, ptr %7, align 4
  br label %65

65:                                               ; preds = %88, %64
  %66 = load i32, ptr %7, align 4
  %67 = load i32, ptr getelementptr inbounds nuw (%struct.slurm_conf_t, ptr @slurm_conf, i32 0, i32 141), align 8
  %68 = icmp ult i32 %66, %67
  br i1 %68, label %70, label %69

69:                                               ; preds = %65
  call void @llvm.lifetime.end.p0(i64 4, ptr %7) #9
  br label %91

70:                                               ; preds = %65
  %71 = load ptr, ptr getelementptr inbounds nuw (%struct.slurm_conf_t, ptr @slurm_conf, i32 0, i32 140), align 8
  %72 = load i32, ptr %7, align 4
  %73 = sext i32 %72 to i64
  %74 = getelementptr inbounds ptr, ptr %71, i64 %73
  %75 = load ptr, ptr %74, align 8
  %76 = getelementptr inbounds i8, ptr %75, i64 0
  %77 = load i8, ptr %76, align 1
  %78 = sext i8 %77 to i32
  %79 = icmp ne i32 %78, 47
  br i1 %79, label %80, label %87

80:                                               ; preds = %70
  %81 = load ptr, ptr %3, align 8
  %82 = load ptr, ptr getelementptr inbounds nuw (%struct.slurm_conf_t, ptr @slurm_conf, i32 0, i32 140), align 8
  %83 = load i32, ptr %7, align 4
  %84 = sext i32 %83 to i64
  %85 = getelementptr inbounds ptr, ptr %82, i64 %84
  %86 = load ptr, ptr %85, align 8
  call void @_load_conf2list(ptr noundef %81, ptr noundef %86, i1 noundef zeroext true)
  br label %87

87:                                               ; preds = %80, %70
  br label %88

88:                                               ; preds = %87
  %89 = load i32, ptr %7, align 4
  %90 = add nsw i32 %89, 1
  store i32 %90, ptr %7, align 4
  br label %65, !llvm.loop !21

91:                                               ; preds = %69
  call void @llvm.lifetime.start.p0(i64 4, ptr %8) #9
  store i32 0, ptr %8, align 4
  br label %92

92:                                               ; preds = %115, %91
  %93 = load i32, ptr %8, align 4
  %94 = load i32, ptr getelementptr inbounds nuw (%struct.slurm_conf_t, ptr @slurm_conf, i32 0, i32 48), align 8
  %95 = icmp ult i32 %93, %94
  br i1 %95, label %97, label %96

96:                                               ; preds = %92
  call void @llvm.lifetime.end.p0(i64 4, ptr %8) #9
  br label %118

97:                                               ; preds = %92
  %98 = load ptr, ptr getelementptr inbounds nuw (%struct.slurm_conf_t, ptr @slurm_conf, i32 0, i32 47), align 8
  %99 = load i32, ptr %8, align 4
  %100 = sext i32 %99 to i64
  %101 = getelementptr inbounds ptr, ptr %98, i64 %100
  %102 = load ptr, ptr %101, align 8
  %103 = getelementptr inbounds i8, ptr %102, i64 0
  %104 = load i8, ptr %103, align 1
  %105 = sext i8 %104 to i32
  %106 = icmp ne i32 %105, 47
  br i1 %106, label %107, label %114

107:                                              ; preds = %97
  %108 = load ptr, ptr %3, align 8
  %109 = load ptr, ptr getelementptr inbounds nuw (%struct.slurm_conf_t, ptr @slurm_conf, i32 0, i32 47), align 8
  %110 = load i32, ptr %8, align 4
  %111 = sext i32 %110 to i64
  %112 = getelementptr inbounds ptr, ptr %109, i64 %111
  %113 = load ptr, ptr %112, align 8
  call void @_load_conf2list(ptr noundef %108, ptr noundef %113, i1 noundef zeroext true)
  br label %114

114:                                              ; preds = %107, %97
  br label %115

115:                                              ; preds = %114
  %116 = load i32, ptr %8, align 4
  %117 = add nsw i32 %116, 1
  store i32 %117, ptr %8, align 4
  br label %92, !llvm.loop !22

118:                                              ; preds = %96
  br label %119

119:                                              ; preds = %118, %61
  %120 = load ptr, ptr %3, align 8
  call void @llvm.lifetime.end.p0(i64 8, ptr %5) #9
  call void @llvm.lifetime.end.p0(i64 8, ptr %4) #9
  call void @llvm.lifetime.end.p0(i64 8, ptr %3) #9
  ret ptr %120
}