; Function Attrs: nounwind uwtable
define dso_local ptr @new_config_response(i1 noundef zeroext %0) local_unnamed_addr #0 {
  %2 = tail call ptr @slurm_xcalloc(i64 noundef 1, i64 noundef 16, i1 noundef zeroext true, i1 noundef zeroext false, ptr noundef nonnull @.str.2, i32 noundef 565, ptr noundef nonnull @__func__.new_config_response) #12
  %spec.store.select = select i1 %0, ptr @slurmd_config_files, ptr @client_config_files
  %3 = tail call ptr @list_create(ptr noundef nonnull @destroy_config_file) #12
  store ptr %3, ptr %2, align 8
  %4 = load ptr, ptr %spec.store.select, align 16
  %.not37 = icmp eq ptr %4, null
  br i1 %.not37, label %._crit_edge, label %.lr.ph

._crit_edge:                                      ; preds = %15, %1
  br i1 %0, label %.preheader36, label %.loopexit

.preheader36:                                     ; preds = %._crit_edge
  %5 = load i32, ptr getelementptr inbounds nuw (i8, ptr @slurm_conf, i64 928), align 8
  %.not43 = icmp eq i32 %5, 0
  br i1 %.not43, label %.preheader, label %.lr.ph40.preheader

.lr.ph40.preheader:                               ; preds = %.preheader36
  %.pre52 = load ptr, ptr getelementptr inbounds nuw (i8, ptr @slurm_conf, i64 920), align 8
  br label %.lr.ph40

.lr.ph:                                           ; preds = %1, %15
  %indvars.iv = phi i64 [ %indvars.iv.next, %15 ], [ 0, %1 ]
  %6 = phi ptr [ %17, %15 ], [ %4, %1 ]
  tail call fastcc void @_load_conf2list(ptr noundef nonnull %2, ptr noundef nonnull %6, i1 noundef zeroext false)
  %7 = load ptr, ptr @conf_includes_list, align 8
  %.not33 = icmp eq ptr %7, null
  br i1 %.not33, label %15, label %8

8:                                                ; preds = %.lr.ph
  %9 = tail call ptr @list_find_first_ro(ptr noundef nonnull %7, ptr noundef nonnull @find_map_conf_file, ptr noundef nonnull %6) #12
  %.not34 = icmp eq ptr %9, null
  br i1 %.not34, label %15, label %10

10:                                               ; preds = %8
  %11 = getelementptr inbounds nuw i8, ptr %9, i64 8
  %12 = load ptr, ptr %11, align 8
  %.not35 = icmp eq ptr %12, null
  br i1 %.not35, label %15, label %13

13:                                               ; preds = %10
  %14 = tail call i32 @list_for_each_ro(ptr noundef nonnull %12, ptr noundef nonnull @_foreach_include_file, ptr noundef nonnull %2) #12
  br label %15

15:                                               ; preds = %.lr.ph, %13, %10, %8
  %indvars.iv.next = add nuw nsw i64 %indvars.iv, 1
  %16 = getelementptr inbounds nuw ptr, ptr %spec.store.select, i64 %indvars.iv.next
  %17 = load ptr, ptr %16, align 8
  %.not = icmp eq ptr %17, null
  br i1 %.not, label %._crit_edge, label %.lr.ph, !llvm.loop !20

.preheader:                                       ; preds = %25, %.preheader36
  %18 = load i32, ptr getelementptr inbounds nuw (i8, ptr @slurm_conf, i64 360), align 8
  %.not44 = icmp eq i32 %18, 0
  br i1 %.not44, label %.loopexit, label %.lr.ph42.preheader

.lr.ph42.preheader:                               ; preds = %.preheader
  %.pre55 = load ptr, ptr getelementptr inbounds nuw (i8, ptr @slurm_conf, i64 352), align 8
  br label %.lr.ph42

.lr.ph40:                                         ; preds = %.lr.ph40.preheader, %25
  %19 = phi i32 [ %5, %.lr.ph40.preheader ], [ %26, %25 ]
  %20 = phi ptr [ %.pre52, %.lr.ph40.preheader ], [ %27, %25 ]
  %indvars.iv46 = phi i64 [ 0, %.lr.ph40.preheader ], [ %indvars.iv.next47, %25 ]
  %21 = getelementptr inbounds nuw ptr, ptr %20, i64 %indvars.iv46
  %22 = load ptr, ptr %21, align 8
  %23 = load i8, ptr %22, align 1
  %.not32 = icmp eq i8 %23, 47
  br i1 %.not32, label %25, label %24

24:                                               ; preds = %.lr.ph40
  tail call fastcc void @_load_conf2list(ptr noundef nonnull %2, ptr noundef nonnull %22, i1 noundef zeroext true)
  %.pre = load ptr, ptr getelementptr inbounds nuw (i8, ptr @slurm_conf, i64 920), align 8
  %.pre53 = load i32, ptr getelementptr inbounds nuw (i8, ptr @slurm_conf, i64 928), align 8
  br label %25

25:                                               ; preds = %.lr.ph40, %24
  %26 = phi i32 [ %19, %.lr.ph40 ], [ %.pre53, %24 ]
  %27 = phi ptr [ %20, %.lr.ph40 ], [ %.pre, %24 ]
  %indvars.iv.next47 = add nuw nsw i64 %indvars.iv46, 1
  %28 = zext i32 %26 to i64
  %29 = icmp samesign ult i64 %indvars.iv.next47, %28
  br i1 %29, label %.lr.ph40, label %.preheader, !llvm.loop !21

.lr.ph42:                                         ; preds = %.lr.ph42.preheader, %36
  %30 = phi i32 [ %18, %.lr.ph42.preheader ], [ %37, %36 ]
  %31 = phi ptr [ %.pre55, %.lr.ph42.preheader ], [ %38, %36 ]
  %indvars.iv49 = phi i64 [ 0, %.lr.ph42.preheader ], [ %indvars.iv.next50, %36 ]
  %32 = getelementptr inbounds nuw ptr, ptr %31, i64 %indvars.iv49
  %33 = load ptr, ptr %32, align 8
  %34 = load i8, ptr %33, align 1
  %.not31 = icmp eq i8 %34, 47
  br i1 %.not31, label %36, label %35

35:                                               ; preds = %.lr.ph42
  tail call fastcc void @_load_conf2list(ptr noundef nonnull %2, ptr noundef nonnull %33, i1 noundef zeroext true)
  %.pre54 = load ptr, ptr getelementptr inbounds nuw (i8, ptr @slurm_conf, i64 352), align 8
  %.pre56 = load i32, ptr getelementptr inbounds nuw (i8, ptr @slurm_conf, i64 360), align 8
  br label %36

36:                                               ; preds = %.lr.ph42, %35
  %37 = phi i32 [ %30, %.lr.ph42 ], [ %.pre56, %35 ]
  %38 = phi ptr [ %31, %.lr.ph42 ], [ %.pre54, %35 ]
  %indvars.iv.next50 = add nuw nsw i64 %indvars.iv49, 1
  %39 = zext i32 %37 to i64
  %40 = icmp samesign ult i64 %indvars.iv.next50, %39
  br i1 %40, label %.lr.ph42, label %.loopexit, !llvm.loop !22

.loopexit:                                        ; preds = %36, %.preheader, %._crit_edge
  ret ptr %2
}